target datalayout = "e-m:e-p270:32:32-p271:32:32-p272:64:64-i64:64-i128:128-f80:128-n8:16:32:64-S128"
target triple = "x86_64-unknown-linux-gnu"

%"class.datalog::check_table" = type { %"class.datalog::table_base.base", ptr, ptr }
%"class.datalog::table_base.base" = type { %"class.datalog::tr_infrastructure<datalog::table_traits>::base_ancestor.base" }
%"class.datalog::tr_infrastructure<datalog::table_traits>::base_ancestor.base" = type <{ ptr, ptr, %"class.datalog::table_signature", i32 }>
%"class.datalog::table_signature" = type <{ %"class.datalog::tr_infrastructure<datalog::table_traits>::signature_base", i32, [4 x i8] }>
%"class.datalog::tr_infrastructure<datalog::table_traits>::signature_base" = type { %class.svector }
%class.svector = type { %class.vector }
%class.vector = type { ptr }
%"class.datalog::tr_infrastructure<datalog::table_traits>::base_ancestor" = type <{ ptr, ptr, %"class.datalog::table_signature", i32, [4 x i8] }>

@_ZN7datalog11check_tableC1ERNS_18check_table_pluginERKNS_15table_signatureEPNS_10table_baseES7_ = hidden unnamed_addr alias void (ptr, ptr, ptr, ptr, ptr), ptr @_ZN7datalog11check_tableC2ERNS_18check_table_pluginERKNS_15table_signatureEPNS_10table_baseES7_

; Function Attrs: mustprogress nounwind uwtable
define linkonce_odr hidden noundef nonnull align 8 dereferenceable(32) ptr @_ZNK7datalog17tr_infrastructureINS_12table_traitsEE13base_ancestor10get_pluginEv(ptr noundef nonnull align 8 dereferenceable(36) %this) #5 comdat align 2 {
entry:
  %this.addr = alloca ptr, align 8
  store ptr %this, ptr %this.addr, align 8
  %this1 = load ptr, ptr %this.addr, align 8
  %m_plugin = getelementptr inbounds %"class.datalog::tr_infrastructure<datalog::table_traits>::base_ancestor", ptr %this1, i32 0, i32 1
  %0 = load ptr, ptr %m_plugin, align 8
  ret ptr %0
}

; Function Attrs: mustprogress nounwind uwtable
define linkonce_odr hidden noundef nonnull align 8 dereferenceable(12) ptr @_ZNK7datalog17tr_infrastructureINS_12table_traitsEE13base_ancestor13get_signatureEv(ptr noundef nonnull align 8 dereferenceable(36) %this) #5 comdat align 2 {
entry:
  %this.addr = alloca ptr, align 8
  store ptr %this, ptr %this.addr, align 8
  %this1 = load ptr, ptr %this.addr, align 8
  %m_signature = getelementptr inbounds %"class.datalog::tr_infrastructure<datalog::table_traits>::base_ancestor", ptr %this1, i32 0, i32 2
  ret ptr %m_signature
}

; Function Attrs: mustprogress uwtable
define linkonce_odr hidden noundef nonnull align 8 dereferenceable(52) ptr @_ZNK7datalog11check_table10get_pluginEv(ptr noundef nonnull align 8 dereferenceable(56) %this) #4 comdat align 2 {
entry:
  %this.addr = alloca ptr, align 8
  store ptr %this, ptr %this.addr, align 8
  %this1 = load ptr, ptr %this.addr, align 8
  %call = call noundef nonnull align 8 dereferenceable(32) ptr @_ZNK7datalog17tr_infrastructureINS_12table_traitsEE13base_ancestor10get_pluginEv(ptr noundef nonnull align 8 dereferenceable(36) %this1)
  ret ptr %call
}

; Function Attrs: mustprogress uwtable
define hidden noundef ptr @_ZNK7datalog11check_table10complementEP9func_declPKm(ptr noundef nonnull align 8 dereferenceable(56) %this, ptr noundef %p, ptr noundef %func_columns) unnamed_addr #4 align 2 {
entry:
  %this.addr = alloca ptr, align 8
  %p.addr = alloca ptr, align 8
  %func_columns.addr = alloca ptr, align 8
  %result = alloca ptr, align 8
  store ptr %this, ptr %this.addr, align 8
  store ptr %p, ptr %p.addr, align 8
  store ptr %func_columns, ptr %func_columns.addr, align 8
  %this1 = load ptr, ptr %this.addr, align 8
  %call = call noalias noundef ptr @_ZN6memory8allocateEm(i64 noundef 56)
  %call2 = call noundef nonnull align 8 dereferenceable(52) ptr @_ZNK7datalog11check_table10get_pluginEv(ptr noundef nonnull align 8 dereferenceable(56) %this1)
  %call3 = call noundef nonnull align 8 dereferenceable(12) ptr @_ZNK7datalog17tr_infrastructureINS_12table_traitsEE13base_ancestor13get_signatureEv(ptr noundef nonnull align 8 dereferenceable(36) %this1)
  %m_tocheck = getelementptr inbounds %"class.datalog::check_table", ptr %this1, i32 0, i32 2
  %0 = load ptr, ptr %m_tocheck, align 8
  %1 = load ptr, ptr %p.addr, align 8
  %2 = load ptr, ptr %func_columns.addr, align 8
  %vtable = load ptr, ptr %0, align 8
  %vfn = getelementptr inbounds ptr, ptr %vtable, i64 16
  %3 = load ptr, ptr %vfn, align 8
  %call4 = call noundef ptr %3(ptr noundef nonnull align 8 dereferenceable(36) %0, ptr noundef %1, ptr noundef %2)
  %m_checker = getelementptr inbounds %"class.datalog::check_table", ptr %this1, i32 0, i32 1
  %4 = load ptr, ptr %m_checker, align 8
  %5 = load ptr, ptr %p.addr, align 8
  %6 = load ptr, ptr %func_columns.addr, align 8
  %vtable5 = load ptr, ptr %4, align 8
  %vfn6 = getelementptr inbounds ptr, ptr %vtable5, i64 16
  %7 = load ptr, ptr %vfn6, align 8
  %call7 = call noundef ptr %7(ptr noundef nonnull align 8 dereferenceable(36) %4, ptr noundef %5, ptr noundef %6)
  call void @_ZN7datalog11check_tableC1ERNS_18check_table_pluginERKNS_15table_signatureEPNS_10table_baseES7_(ptr noundef nonnull align 8 dereferenceable(56) %call, ptr noundef nonnull align 8 dereferenceable(52) %call2, ptr noundef nonnull align 8 dereferenceable(12) %call3, ptr noundef %call4, ptr noundef %call7)
  store ptr %call, ptr %result, align 8
  %8 = load ptr, ptr %result, align 8
  ret ptr %8
}