; Function Attrs: mustprogress uwtable
define hidden noundef ptr @_ZNK7datalog11check_table10complementEP9func_declPKm(ptr nocapture noundef nonnull readonly align 8 dereferenceable(56) %this, ptr noundef %p, ptr noundef %func_columns) unnamed_addr #3 align 2 personality ptr @__gxx_personality_v0 {
entry:
  %call = tail call noalias noundef ptr @_ZN6memory8allocateEm(i64 noundef 56)
  %m_plugin.i.i = getelementptr inbounds i8, ptr %this, i64 8
  %0 = load ptr, ptr %m_plugin.i.i, align 8
  %m_signature.i = getelementptr inbounds i8, ptr %this, i64 16
  %m_tocheck = getelementptr inbounds i8, ptr %this, i64 48
  %1 = load ptr, ptr %m_tocheck, align 8
  %vtable = load ptr, ptr %1, align 8
  %vfn = getelementptr inbounds i8, ptr %vtable, i64 128
  %2 = load ptr, ptr %vfn, align 8
  %call4 = tail call noundef ptr %2(ptr noundef nonnull align 8 dereferenceable(36) %1, ptr noundef %p, ptr noundef %func_columns)
  %m_checker = getelementptr inbounds i8, ptr %this, i64 40
  %3 = load ptr, ptr %m_checker, align 8
  %vtable5 = load ptr, ptr %3, align 8
  %vfn6 = getelementptr inbounds i8, ptr %vtable5, i64 128
  %4 = load ptr, ptr %vfn6, align 8
  %call7 = tail call noundef ptr %4(ptr noundef nonnull align 8 dereferenceable(36) %3, ptr noundef %p, ptr noundef %func_columns)
  store ptr getelementptr inbounds ({ [18 x ptr] }, ptr @_ZTVN7datalog17tr_infrastructureINS_12table_traitsEE13base_ancestorE, i64 0, i32 0, i64 2), ptr %call, align 8
  %m_plugin.i.i.i = getelementptr inbounds i8, ptr %call, i64 8
  store ptr %0, ptr %m_plugin.i.i.i, align 8
  %m_signature.i.i.i = getelementptr inbounds i8, ptr %call, i64 16
  store ptr null, ptr %m_signature.i.i.i, align 8
  %5 = load ptr, ptr %m_signature.i, align 8
  %tobool.not.i.i.i.i.i.i.i = icmp eq ptr %5, null
  br i1 %tobool.not.i.i.i.i.i.i.i, label %_ZN7datalog10table_baseC2ERNS_12table_pluginERKNS_15table_signatureE.exit.i, label %_ZNK6vectorImLb0EjE8capacityEv.exit.i.i.i.i.i.i.i.i

_ZNK6vectorImLb0EjE8capacityEv.exit.i.i.i.i.i.i.i.i: ; preds = %entry
  %arrayidx.i11.i.i.i.i.i.i.i.i = getelementptr inbounds i8, ptr %5, i64 -8
  %6 = load <2 x i32>, ptr %arrayidx.i11.i.i.i.i.i.i.i.i, align 4
  %7 = extractelement <2 x i32> %6, i64 0
  %conv.i.i.i.i.i.i.i.i = zext i32 %7 to i64
  %mul.i.i.i.i.i.i.i.i = shl nuw nsw i64 %conv.i.i.i.i.i.i.i.i, 3
  %add.i.i.i.i.i.i.i.i = add nuw nsw i64 %mul.i.i.i.i.i.i.i.i, 8
  %call3.i.i.i.i.i.i.i.i = tail call noalias noundef ptr @_ZN6memory8allocateEm(i64 noundef %add.i.i.i.i.i.i.i.i)
  store <2 x i32> %6, ptr %call3.i.i.i.i.i.i.i.i, align 4
  %incdec.ptr4.i.i.i.i.i.i.i.i = getelementptr inbounds i8, ptr %call3.i.i.i.i.i.i.i.i, i64 8
  store ptr %incdec.ptr4.i.i.i.i.i.i.i.i, ptr %m_signature.i.i.i, align 8
  %8 = load ptr, ptr %m_signature.i, align 8
  %cmp.i.i.i.i.i.i.i.i.i.i = icmp eq ptr %8, null
  br i1 %cmp.i.i.i.i.i.i.i.i.i.i, label %_ZN7datalog10table_baseC2ERNS_12table_pluginERKNS_15table_signatureE.exit.i, label %_ZNK6vectorImLb0EjE3endEv.exit.i.i.i.i.i.i.i.i

_ZNK6vectorImLb0EjE3endEv.exit.i.i.i.i.i.i.i.i:   ; preds = %_ZNK6vectorImLb0EjE8capacityEv.exit.i.i.i.i.i.i.i.i
  %arrayidx.i.i.i.i.i.i.i.i.i.i = getelementptr inbounds i8, ptr %8, i64 -4
  %9 = load i32, ptr %arrayidx.i.i.i.i.i.i.i.i.i.i, align 4
  %tobool.not.i.i.i.i.i.i.i.i.i.i.i.i.i.i.i = icmp eq i32 %9, 0
  br i1 %tobool.not.i.i.i.i.i.i.i.i.i.i.i.i.i.i.i, label %_ZN7datalog10table_baseC2ERNS_12table_pluginERKNS_15table_signatureE.exit.i, label %if.then.i.i.i.i.i.i.i.i.i.i.i.i.i.i.i

if.then.i.i.i.i.i.i.i.i.i.i.i.i.i.i.i:            ; preds = %_ZNK6vectorImLb0EjE3endEv.exit.i.i.i.i.i.i.i.i
  %10 = zext i32 %9 to i64
  %11 = shl nuw nsw i64 %10, 3
  tail call void @llvm.memmove.p0.p0.i64(ptr nonnull align 8 %incdec.ptr4.i.i.i.i.i.i.i.i, ptr nonnull align 8 %8, i64 %11, i1 false)
  br label %_ZN7datalog10table_baseC2ERNS_12table_pluginERKNS_15table_signatureE.exit.i

_ZN7datalog10table_baseC2ERNS_12table_pluginERKNS_15table_signatureE.exit.i: ; preds = %if.then.i.i.i.i.i.i.i.i.i.i.i.i.i.i.i, %_ZNK6vectorImLb0EjE3endEv.exit.i.i.i.i.i.i.i.i, %_ZNK6vectorImLb0EjE8capacityEv.exit.i.i.i.i.i.i.i.i, %entry
  %m_functional_columns.i.i.i.i = getelementptr inbounds i8, ptr %call, i64 24
  %m_functional_columns2.i.i.i.i = getelementptr inbounds i8, ptr %this, i64 24
  %12 = load i32, ptr %m_functional_columns2.i.i.i.i, align 8
  store i32 %12, ptr %m_functional_columns.i.i.i.i, align 8
  %m_kind.i.i.i = getelementptr inbounds i8, ptr %call, i64 32
  %m_kind.i.i.i.i = getelementptr inbounds i8, ptr %0, i64 8
  %13 = load i32, ptr %m_kind.i.i.i.i, align 8
  store i32 %13, ptr %m_kind.i.i.i, align 8
  store ptr getelementptr inbounds ({ [29 x ptr] }, ptr @_ZTVN7datalog11check_tableE, i64 0, i32 0, i64 2), ptr %call, align 8
  %m_checker.i = getelementptr inbounds i8, ptr %call, i64 40
  store ptr %call7, ptr %m_checker.i, align 8
  %m_tocheck.i = getelementptr inbounds i8, ptr %call, i64 48
  store ptr %call4, ptr %m_tocheck.i, align 8
  %call.i = invoke noundef zeroext i1 @_ZNK7datalog11check_table11well_formedEv(ptr noundef nonnull align 8 dereferenceable(56) %call)
          to label %_ZN7datalog11check_tableC2ERNS_18check_table_pluginERKNS_15table_signatureEPNS_10table_baseES7_.exit unwind label %lpad.i

lpad.i:                                           ; preds = %_ZN7datalog10table_baseC2ERNS_12table_pluginERKNS_15table_signatureE.exit.i
  %14 = landingpad { ptr, i32 }
          cleanup
  tail call void @_ZN7datalog10table_baseD2Ev(ptr noundef nonnull align 8 dereferenceable(36) %call) #14
  resume { ptr, i32 } %14

_ZN7datalog11check_tableC2ERNS_18check_table_pluginERKNS_15table_signatureEPNS_10table_baseES7_.exit: ; preds = %_ZN7datalog10table_baseC2ERNS_12table_pluginERKNS_15table_signatureE.exit.i
  ret ptr %call
}